-----BEGIN CERTIFICATE-----
MIIEgjCCAuqgAwIBAgIUNbtqSB2xOED/xwdvJFtzD/KCQ20wDQYJKoZIhvcNAQEL
BQAwPzELMAkGA1UEBhMCREUxFzAVBgNVBAoMDlJhc3BiZXJyeVBpIENBMRcwFQYD
VQQDDA5SYXNwYmVycnlQaSBDQTAeFw0yMTAzMDkxNjU0NTdaFw0zMTAxMTYxNjU0
NTdaMD8xCzAJBgNVBAYTAkRFMRcwFQYDVQQKDA5SYXNwYmVycnlQaSBDQTEXMBUG
A1UEAwwOUmFzcGJlcnJ5UGkgQ0EwggGiMA0GCSqGSIb3DQEBAQUAA4IBjwAwggGK
AoIBgQDA/Q+ke1XVzB35Gb3TsMkDi7EtoEJbXIzPOTSivQ6fw4SMeiAMLHYQFxqV
/VAGLZLSgwmWxedN/HgFQCzLRj/P1OsOMM/ReTpmZVdz32DTtdhWJmYp7AnSsdb9
mFhhQxvJcpOT4CbFRZ7qoZOIKB6wouzMZ16hANMgfzcOH215rYoZ34Jx/RQeBvpO
xojX01kvC+XpjHSrbIeYAFoYJu5GPrk9YXnJ49QrTJd99NoqDtg7ddbFnlp8IF91
Y1iVBkDlx6bl+NeAYwzwORsSAaILltfDOZOptuHRFeDckyWl+KFlOf0olDSze3tp
ru0UKSM1w7HE/L6lF+aYC/baga9cQVLdcOwd703HmcFEK/7+VQVInM4PyvNZwuA6
xCzEt8disCdvTBI1xCBvGpQfgjJ1ACCkPNc381GMsLZ3ju3B0OS1628sb43kPytZ
6XkEzk5yDvPNR8VTvEj5wsI1EpmbGjKpxuCzdAShlDQJUepF2WIc+F2VQYqHGhAS
6OP6o80CAwEAAaN2MHQwHQYDVR0OBBYEFPLP9HPnUqmtRi8Yzv5utFhF8YzoMB8G
A1UdIwQYMBaAFPLP9HPnUqmtRi8Yzv5utFhF8YzoMA8GA1UdEwEB/wQFMAMBAf8w
DgYDVR0PAQH/BAQDAgEGMBEGCWCGSAGG+EIBAQQEAwIBBjANBgkqhkiG9w0BAQsF
AAOCAYEADU2PmB33BAMv2Hf21wYkwWK9Wd/e/jnLCUAspkam7MO9IEHySjRIBSWW
ISaSOu9DrQsvg08aWH/pD4fR/CuGWPMgNtPPzSbG4FHOdJkR+YUsgoCrPGjkYlEC
Yzu3X6yCB4f8Pe3/UeufkFn3PujztAYsLYZjr4hIr94DURShIsX5G/oyMdkcOdae
ghDolK/SGo/FJOnwrbd7az/WFLCwMkoxYmQetAK5GPwicvbyQAMmbKS1oVHmAueH
dDmuSRsHy5RlrknD/rHLDLOkS/M3FCj0igwahhlKlp3BEZjiNdlLwp6fHQMVBWGW
wBpLqRzwMrTPznQtjLdKtyT1ZlAK5lbo0DCiFkl0XD3puY+TAjmr035D9OswuCSA
Mo+HrlmiqdkV05AgnW1Qhr27zLJubDilR2BaOEsfdRIEASVzw/07yjsCvm51CvnD
Z2NMFAeNxbJ+IK3PPuu2On3jvfCIAn+WNzhv/jNvMf75WOxb5CAXYLoQfWcSUSsm
Ihljhq5V
-----END CERTIFICATE-----
Certificate:
    Data:
        Version: 3 (0x2)
        Serial Number:
            35:bb:6a:48:1d:b1:38:40:ff:c7:07:6f:24:5b:73:0f:f2:82:43:6d
        Signature Algorithm: sha256WithRSAEncryption
        Issuer: C = DE, O = RaspberryPi CA, CN = RaspberryPi CA
        Validity
            Not Before: Mar  9 16:54:57 2021 GMT
            Not After : Jan 16 16:54:57 2031 GMT
        Subject: C = DE, O = RaspberryPi CA, CN = RaspberryPi CA
        Subject Public Key Info:
            Public Key Algorithm: rsaEncryption
                RSA Public-Key: (3072 bit)
                Modulus:
                    00:c0:fd:0f:a4:7b:55:d5:cc:1d:f9:19:bd:d3:b0:
                    c9:03:8b:b1:2d:a0:42:5b:5c:8c:cf:39:34:a2:bd:
                    0e:9f:c3:84:8c:7a:20:0c:2c:76:10:17:1a:95:fd:
                    50:06:2d:92:d2:83:09:96:c5:e7:4d:fc:78:05:40:
                    2c:cb:46:3f:cf:d4:eb:0e:30:cf:d1:79:3a:66:65:
                    57:73:df:60:d3:b5:d8:56:26:66:29:ec:09:d2:b1:
                    d6:fd:98:58:61:43:1b:c9:72:93:93:e0:26:c5:45:
                    9e:ea:a1:93:88:28:1e:b0:a2:ec:cc:67:5e:a1:00:
                    d3:20:7f:37:0e:1f:6d:79:ad:8a:19:df:82:71:fd:
                    14:1e:06:fa:4e:c6:88:d7:d3:59:2f:0b:e5:e9:8c:
                    74:ab:6c:87:98:00:5a:18:26:ee:46:3e:b9:3d:61:
                    79:c9:e3:d4:2b:4c:97:7d:f4:da:2a:0e:d8:3b:75:
                    d6:c5:9e:5a:7c:20:5f:75:63:58:95:06:40:e5:c7:
                    a6:e5:f8:d7:80:63:0c:f0:39:1b:12:01:a2:0b:96:
                    d7:c3:39:93:a9:b6:e1:d1:15:e0:dc:93:25:a5:f8:
                    a1:65:39:fd:28:94:34:b3:7b:7b:69:ae:ed:14:29:
                    23:35:c3:b1:c4:fc:be:a5:17:e6:98:0b:f6:da:81:
                    af:5c:41:52:dd:70:ec:1d:ef:4d:c7:99:c1:44:2b:
                    fe:fe:55:05:48:9c:ce:0f:ca:f3:59:c2:e0:3a:c4:
                    2c:c4:b7:c7:62:b0:27:6f:4c:12:35:c4:20:6f:1a:
                    94:1f:82:32:75:00:20:a4:3c:d7:37:f3:51:8c:b0:
                    b6:77:8e:ed:c1:d0:e4:b5:eb:6f:2c:6f:8d:e4:3f:
                    2b:59:e9:79:04:ce:4e:72:0e:f3:cd:47:c5:53:bc:
                    48:f9:c2:c2:35:12:99:9b:1a:32:a9:c6:e0:b3:74:
                    04:a1:94:34:09:51:ea:45:d9:62:1c:f8:5d:95:41:
                    8a:87:1a:10:12:e8:e3:fa:a3:cd
                Exponent: 65537 (0x10001)
        X509v3 extensions:
            X509v3 Subject Key Identifier: 
                F2:CF:F4:73:E7:52:A9:AD:46:2F:18:CE:FE:6E:B4:58:45:F1:8C:E8
            X509v3 Authority Key Identifier: 
                keyid:F2:CF:F4:73:E7:52:A9:AD:46:2F:18:CE:FE:6E:B4:58:45:F1:8C:E8

            X509v3 Basic Constraints: critical
                CA:TRUE
            X509v3 Key Usage: critical
                Certificate Sign, CRL Sign
            Netscape Cert Type: 
                SSL CA, S/MIME CA
    Signature Algorithm: sha256WithRSAEncryption
         0d:4d:8f:98:1d:f7:04:03:2f:d8:77:f6:d7:06:24:c1:62:bd:
         59:df:de:fe:39:cb:09:40:2c:a6:46:a6:ec:c3:bd:20:41:f2:
         4a:34:48:05:25:96:21:26:92:3a:ef:43:ad:0b:2f:83:4f:1a:
         58:7f:e9:0f:87:d1:fc:2b:86:58:f3:20:36:d3:cf:cd:26:c6:
         e0:51:ce:74:99:11:f9:85:2c:82:80:ab:3c:68:e4:62:51:02:
         63:3b:b7:5f:ac:82:07:87:fc:3d:ed:ff:51:eb:9f:90:59:f7:
         3e:e8:f3:b4:06:2c:2d:86:63:af:88:48:af:de:03:51:14:a1:
         22:c5:f9:1b:fa:32:31:d9:1c:39:d6:9e:82:10:e8:94:af:d2:
         1a:8f:c5:24:e9:f0:ad:b7:7b:6b:3f:d6:14:b0:b0:32:4a:31:
         62:64:1e:b4:02:b9:18:fc:22:72:f6:f2:40:03:26:6c:a4:b5:
         a1:51:e6:02:e7:87:74:39:ae:49:1b:07:cb:94:65:ae:49:c3:
         fe:b1:cb:0c:b3:a4:4b:f3:37:14:28:f4:8a:0c:1a:86:19:4a:
         96:9d:c1:11:98:e2:35:d9:4b:c2:9e:9f:1d:03:15:05:61:96:
         c0:1a:4b:a9:1c:f0:32:b4:cf:ce:74:2d:8c:b7:4a:b7:24:f5:
         66:50:0a:e6:56:e8:d0:30:a2:16:49:74:5c:3d:e9:b9:8f:93:
         02:39:ab:d3:7e:43:f4:eb:30:b8:24:80:32:8f:87:ae:59:a2:
         a9:d9:15:d3:90:20:9d:6d:50:86:bd:bb:cc:b2:6e:6c:38:a5:
         47:60:5a:38:4b:1f:75:12:04:01:25:73:c3:fd:3b:ca:3b:02:
         be:6e:75:0a:f9:c3:67:63:4c:14:07:8d:c5:b2:7e:20:ad:cf:
         3e:eb:b6:3a:7d:e3:bd:f0:88:02:7f:96:37:38:6f:fe:33:6f:
         31:fe:f9:58:ec:5b:e4:20:17:60:ba:10:7d:67:12:51:2b:26:
         22:19:63:86:ae:55
SHA1 Fingerprint=B7:31:99:5F:4D:82:ED:AC:E0:B2:6D:2D:B6:FB:85:A2:64:39:FA:74
