-----BEGIN CERTIFICATE-----
MIIBsjCCAVigAwIBAgIUAkxBB0s0VU4GBSInJjQ5lfDrwaowCgYIKoZIzj0EAwIw
JjELMAkGA1UEBhMCREUxFzAVBgNVBAMMDlJhc3BiZXJyeVBpIENBMB4XDTIxMDMw
ODE5NTMyNloXDTMxMDExNTE5NTMyNlowJjELMAkGA1UEBhMCREUxFzAVBgNVBAMM
DlJhc3BiZXJyeVBpIENBMFowFAYHKoZIzj0CAQYJKyQDAwIIAQEHA0IABE1cJM3x
W2Dzwqm/UvBHVAZ/bsJGaObI6q+HRfRXrpSdDaZ6xMZgKnm9y3RymFTvGkSXqy45
OPcCrANhn4EgQB6jYzBhMB0GA1UdDgQWBBThzmeygBhf7T8NCuUcs9xpJVvIWDAf
BgNVHSMEGDAWgBThzmeygBhf7T8NCuUcs9xpJVvIWDAPBgNVHRMBAf8EBTADAQH/
MA4GA1UdDwEB/wQEAwIBBjAKBggqhkjOPQQDAgNIADBFAiEAk9chZqRaPF1z07nU
vrwngCKpLktblhhlhBDYwl+FoP4CIBrRfuEIfYQ3hc3q6/ndTOa8aybmW1ZmBgne
Fa75qleJ
-----END CERTIFICATE-----
Certificate:
    Data:
        Version: 3 (0x2)
        Serial Number:
            02:4c:41:07:4b:34:55:4e:06:05:22:27:26:34:39:95:f0:eb:c1:aa
        Signature Algorithm: ecdsa-with-SHA256
        Issuer: C = DE, CN = RaspberryPi CA
        Validity
            Not Before: Mar  8 19:53:26 2021 GMT
            Not After : Jan 15 19:53:26 2031 GMT
        Subject: C = DE, CN = RaspberryPi CA
        Subject Public Key Info:
            Public Key Algorithm: id-ecPublicKey
                Public-Key: (256 bit)
                pub:
                    04:4d:5c:24:cd:f1:5b:60:f3:c2:a9:bf:52:f0:47:
                    54:06:7f:6e:c2:46:68:e6:c8:ea:af:87:45:f4:57:
                    ae:94:9d:0d:a6:7a:c4:c6:60:2a:79:bd:cb:74:72:
                    98:54:ef:1a:44:97:ab:2e:39:38:f7:02:ac:03:61:
                    9f:81:20:40:1e
                ASN1 OID: brainpoolP256r1
        X509v3 extensions:
            X509v3 Subject Key Identifier: 
                E1:CE:67:B2:80:18:5F:ED:3F:0D:0A:E5:1C:B3:DC:69:25:5B:C8:58
            X509v3 Authority Key Identifier: 
                keyid:E1:CE:67:B2:80:18:5F:ED:3F:0D:0A:E5:1C:B3:DC:69:25:5B:C8:58

            X509v3 Basic Constraints: critical
                CA:TRUE
            X509v3 Key Usage: critical
                Certificate Sign, CRL Sign
    Signature Algorithm: ecdsa-with-SHA256
         30:45:02:21:00:93:d7:21:66:a4:5a:3c:5d:73:d3:b9:d4:be:
         bc:27:80:22:a9:2e:4b:5b:96:18:65:84:10:d8:c2:5f:85:a0:
         fe:02:20:1a:d1:7e:e1:08:7d:84:37:85:cd:ea:eb:f9:dd:4c:
         e6:bc:6b:26:e6:5b:56:66:06:09:de:15:ae:f9:aa:57:89
SHA1 Fingerprint=E7:B4:A2:70:CB:15:D9:D6:E1:FB:C2:A4:E0:75:E7:7C:EE:CA:B5:C7
